; Function Attrs: mustprogress nounwind uwtable
define void @_ZN18FilterScriptDialogD2Ev(ptr noundef nonnull align 8 dereferenceable(64) %0) unnamed_addr #4 align 2 {
  store ptr getelementptr inbounds ({ [59 x ptr], [10 x ptr] }, ptr @_ZTV18FilterScriptDialog, i64 0, i32 0, i64 2), ptr %0, align 8
  %2 = getelementptr inbounds i8, ptr %0, i64 16
  store ptr getelementptr inbounds ({ [59 x ptr], [10 x ptr] }, ptr @_ZTV18FilterScriptDialog, i64 0, i32 1, i64 2), ptr %2, align 8
  %3 = getelementptr inbounds i8, ptr %0, i64 48
  %4 = load ptr, ptr %3, align 8
  %5 = icmp eq ptr %4, null
  br i1 %5, label %7, label %6

6:                                                ; preds = %1
  tail call void @_ZdlPv(ptr noundef nonnull %4) #17
  br label %7

7:                                                ; preds = %6, %1
  tail call void @_ZN7QDialogD2Ev(ptr noundef nonnull align 8 dereferenceable(48) %0) #18
  ret void
}